target datalayout = "e-m:e-p270:32:32-p271:32:32-p272:64:64-i64:64-i128:128-f80:128-n8:16:32:64-S128"
target triple = "x86_64-pc-linux-gnu"

; Function Attrs: nounwind uwtable
define hidden i32 @mbedtls_ssl_md_alg_from_hash(i8 noundef zeroext %0) #0 {
  %2 = alloca i32, align 4
  %3 = alloca i8, align 1
  store i8 %0, ptr %3, align 1, !tbaa !87
  %4 = load i8, ptr %3, align 1, !tbaa !87
  %5 = zext i8 %4 to i32
  switch i32 %5, label %12 [
    i32 1, label %6
    i32 2, label %7
    i32 3, label %8
    i32 4, label %9
    i32 5, label %10
    i32 6, label %11
  ]

6:                                                ; preds = %1
  store i32 3, ptr %2, align 4
  br label %13

7:                                                ; preds = %1
  store i32 5, ptr %2, align 4
  br label %13

8:                                                ; preds = %1
  store i32 8, ptr %2, align 4
  br label %13

9:                                                ; preds = %1
  store i32 9, ptr %2, align 4
  br label %13

10:                                               ; preds = %1
  store i32 10, ptr %2, align 4
  br label %13

11:                                               ; preds = %1
  store i32 11, ptr %2, align 4
  br label %13

12:                                               ; preds = %1
  store i32 0, ptr %2, align 4
  br label %13

13:                                               ; preds = %12, %11, %10, %9, %8, %7, %6
  %14 = load i32, ptr %2, align 4
  ret i32 %14
}