; Function Attrs: mustprogress nofree norecurse nosync nounwind willreturn memory(none) uwtable
define hidden range(i32 0, 12) i32 @mbedtls_ssl_md_alg_from_hash(i8 noundef zeroext %0) local_unnamed_addr #9 {
  %switch.tableidx = add i8 %0, -1
  %2 = icmp ult i8 %switch.tableidx, 6
  br i1 %2, label %switch.lookup, label %4

switch.lookup:                                    ; preds = %1
  %3 = zext nneg i8 %switch.tableidx to i64
  %switch.gep = getelementptr inbounds nuw [6 x i32], ptr @switch.table.mbedtls_ssl_md_alg_from_hash, i64 0, i64 %3
  %switch.load = load i32, ptr %switch.gep, align 4
  br label %4

4:                                                ; preds = %1, %switch.lookup
  %.0 = phi i32 [ %switch.load, %switch.lookup ], [ 0, %1 ]
  ret i32 %.0
}